; ModuleID = 'source-C-CXX/23/2141.c'
source_filename = "source-C-CXX/23/2141.c"
target datalayout = "e-m:e-p270:32:32-p271:32:32-p272:64:64-i64:64-f80:128-n8:16:32:64-S128"
target triple = "x86_64-pc-linux-gnu"

%struct._IO_FILE = type { i32, i8*, i8*, i8*, i8*, i8*, i8*, i8*, i8*, i8*, i8*, i8*, %struct._IO_marker*, %struct._IO_FILE*, i32, i32, i64, i16, i8, [1 x i8], i8*, i64, %struct._IO_codecvt*, %struct._IO_wide_data*, %struct._IO_FILE*, i8*, i64, i32, [20 x i8] }
%struct._IO_marker = type opaque
%struct._IO_codecvt = type opaque
%struct._IO_wide_data = type opaque

@.str = private unnamed_addr constant [3 x i8] c"%s\00", align 1
@.str.1 = private unnamed_addr constant [7 x i8] c"%s\0A%s\0A\00", align 1
@stdin = external local_unnamed_addr global %struct._IO_FILE*, align 8

; Function Attrs: nofree nounwind sspstrong uwtable
define dso_local void @main() local_unnamed_addr #0 {
  %1 = alloca [20 x i8], align 16
  %2 = alloca [20 x i8], align 16
  %3 = alloca [20 x i8], align 16
  %4 = getelementptr inbounds [20 x i8], [20 x i8]* %1, i64 0, i64 0
  call void @llvm.lifetime.start.p0i8(i64 20, i8* nonnull %4) #5
  %5 = getelementptr inbounds [20 x i8], [20 x i8]* %2, i64 0, i64 0
  call void @llvm.lifetime.start.p0i8(i64 20, i8* nonnull %5) #5
  %6 = getelementptr inbounds [20 x i8], [20 x i8]* %3, i64 0, i64 0
  call void @llvm.lifetime.start.p0i8(i64 20, i8* nonnull %6) #5
  %7 = call i32 (i8*, ...) @__isoc99_scanf(i8* getelementptr inbounds ([3 x i8], [3 x i8]* @.str, i64 0, i64 0), [20 x i8]* nonnull %1)
  %8 = call i8* @strcpy(i8* noundef nonnull %5, i8* noundef nonnull %4) #5
  %9 = call i8* @strcpy(i8* noundef nonnull %6, i8* noundef nonnull %4) #5
  br label %10

10:                                               ; preds = %0, %28
  %11 = phi i32 [ 1, %0 ], [ %29, %28 ]
  %12 = load %struct._IO_FILE*, %struct._IO_FILE** @stdin, align 8, !tbaa !5
  %13 = call i32 @getc(%struct._IO_FILE* %12) #5
  %14 = and i32 %13, 255
  %15 = icmp eq i32 %14, 10
  br i1 %15, label %31, label %16

16:                                               ; preds = %10
  %17 = call i32 (i8*, ...) @__isoc99_scanf(i8* getelementptr inbounds ([3 x i8], [3 x i8]* @.str, i64 0, i64 0), [20 x i8]* nonnull %1)
  %18 = call i64 @strlen(i8* noundef nonnull %4) #6
  %19 = call i64 @strlen(i8* noundef nonnull %5) #6
  %20 = icmp ugt i64 %18, %19
  br i1 %20, label %21, label %23

21:                                               ; preds = %16
  %22 = call i8* @strcpy(i8* noundef nonnull %5, i8* noundef nonnull %4) #5
  br label %23

23:                                               ; preds = %21, %16
  %24 = call i64 @strlen(i8* noundef nonnull %6) #6
  %25 = icmp ult i64 %18, %24
  br i1 %25, label %26, label %28

26:                                               ; preds = %23
  %27 = call i8* @strcpy(i8* noundef nonnull %6, i8* noundef nonnull %4) #5
  br label %28

28:                                               ; preds = %23, %26
  %29 = add nuw nsw i32 %11, 1
  %30 = icmp eq i32 %29, 101
  br i1 %30, label %31, label %10, !llvm.loop !9

31:                                               ; preds = %10, %28
  %32 = call i32 (i8*, ...) @printf(i8* nonnull dereferenceable(1) getelementptr inbounds ([7 x i8], [7 x i8]* @.str.1, i64 0, i64 0), i8* nonnull %5, i8* nonnull %6)
  call void @llvm.lifetime.end.p0i8(i64 20, i8* nonnull %6) #5
  call void @llvm.lifetime.end.p0i8(i64 20, i8* nonnull %5) #5
  call void @llvm.lifetime.end.p0i8(i64 20, i8* nonnull %4) #5
  ret void
}

; Function Attrs: argmemonly mustprogress nofree nosync nounwind willreturn
declare void @llvm.lifetime.start.p0i8(i64 immarg, i8* nocapture) #1

; Function Attrs: nofree nounwind
declare noundef i32 @__isoc99_scanf(i8* nocapture noundef readonly, ...) local_unnamed_addr #2

; Function Attrs: argmemonly mustprogress nofree nounwind willreturn
declare i8* @strcpy(i8* noalias returned writeonly, i8* noalias nocapture readonly) local_unnamed_addr #3

; Function Attrs: argmemonly mustprogress nofree nounwind readonly willreturn
declare i64 @strlen(i8* nocapture) local_unnamed_addr #4

; Function Attrs: nofree nounwind
declare noundef i32 @printf(i8* nocapture noundef readonly, ...) local_unnamed_addr #2

; Function Attrs: argmemonly mustprogress nofree nosync nounwind willreturn
declare void @llvm.lifetime.end.p0i8(i64 immarg, i8* nocapture) #1

; Function Attrs: nofree nounwind
declare noundef i32 @getc(%struct._IO_FILE* nocapture noundef) local_unnamed_addr #2


!llvm.module.flags = !{!0, !1, !2, !3}
!llvm.ident = !{!4}

!0 = !{i32 1, !"wchar_size", i32 4}
!1 = !{i32 7, !"PIC Level", i32 2}
!2 = !{i32 7, !"PIE Level", i32 2}
!3 = !{i32 7, !"uwtable", i32 1}
!4 = !{!"clang version 13.0.0"}
!5 = !{!6, !6, i64 0}
!6 = !{!"any pointer", !7, i64 0}
!7 = !{!"omnipotent char", !8, i64 0}
!8 = !{!"Simple C/C++ TBAA"}
!9 = distinct !{!9, !10}
!10 = !{!"llvm.loop.mustprogress"}
